; Function Attrs: nounwind uwtable
define hidden i32 @lj_ir_ggfload(ptr noundef initializes((184, 190)) %0, i32 noundef %1, i64 noundef %2) local_unnamed_addr #6 {
  %4 = lshr i64 %2, 2
  %5 = trunc i32 %1 to i16
  %6 = or i16 %5, 17664
  %7 = trunc i64 %4 to i16
  %8 = getelementptr inbounds nuw i8, ptr %0, i64 184
  %9 = getelementptr inbounds nuw i8, ptr %0, i64 188
  store i16 %6, ptr %9, align 4, !tbaa !33
  store i16 32767, ptr %8, align 8, !tbaa !33
  %10 = getelementptr inbounds nuw i8, ptr %0, i64 186
  store i16 %7, ptr %10, align 2, !tbaa !33
  %11 = tail call i32 @lj_opt_fold(ptr noundef %0) #13
  ret i32 %11
}